; Function Attrs: mustprogress uwtable
define void @_ZN5ImGui7SpacingEv() local_unnamed_addr #6 {
  %1 = alloca %struct.ImVec2, align 4
  %2 = load ptr, ptr @GImGui, align 8, !tbaa !3
  %3 = getelementptr inbounds nuw i8, ptr %2, i64 5016
  %4 = load ptr, ptr %3, align 8, !tbaa !8
  %5 = getelementptr inbounds nuw i8, ptr %4, i64 204
  store i8 1, ptr %5, align 4, !tbaa !130
  %6 = getelementptr inbounds nuw i8, ptr %4, i64 207
  %7 = load i8, ptr %6, align 1, !tbaa !152, !range !153, !noundef !154
  %8 = trunc nuw i8 %7 to i1
  br i1 %8, label %11, label %9

9:                                                ; preds = %0
  call void @llvm.lifetime.start.p0(i64 8, ptr nonnull %1) #44
  store float 0.000000e+00, ptr %1, align 4, !tbaa !159
  %10 = getelementptr inbounds nuw i8, ptr %1, i64 4
  store float 0.000000e+00, ptr %10, align 4, !tbaa !160
  call void @_ZN5ImGui8ItemSizeERK6ImVec2f(ptr noundef nonnull align 4 dereferenceable(8) %1, float noundef -1.000000e+00)
  call void @llvm.lifetime.end.p0(i64 8, ptr nonnull %1) #44
  br label %11

11:                                               ; preds = %0, %9
  ret void
}